target datalayout = "e-m:e-p270:32:32-p271:32:32-p272:64:64-i64:64-i128:128-f80:128-n8:16:32:64-S128"
target triple = "x86_64-pc-linux-gnu"

%struct.JNIInvokeInterface_ = type { ptr, ptr, ptr, ptr, ptr, ptr, ptr, ptr }

; Function Attrs: nounwind uwtable
define i32 @JNI_OnLoad(ptr noundef %0, ptr noundef %1) #0 {
  %3 = alloca i32, align 4
  %4 = alloca ptr, align 8
  %5 = alloca ptr, align 8
  %6 = alloca ptr, align 8
  store ptr %0, ptr %4, align 8
  store ptr %1, ptr %5, align 8
  %7 = load ptr, ptr %4, align 8
  %8 = load ptr, ptr %7, align 8
  %9 = getelementptr inbounds %struct.JNIInvokeInterface_, ptr %8, i32 0, i32 6
  %10 = load ptr, ptr %9, align 8
  %11 = load ptr, ptr %4, align 8
  %12 = call i32 %10(ptr noundef %11, ptr noundef %6, i32 noundef 65538)
  %13 = icmp ne i32 %12, 0
  br i1 %13, label %14, label %15

14:                                               ; preds = %2
  store i32 -3, ptr %3, align 4
  br label %16

15:                                               ; preds = %2
  store i32 65538, ptr %3, align 4
  br label %16

16:                                               ; preds = %15, %14
  %17 = load i32, ptr %3, align 4
  ret i32 %17
}


!llvm.module.flags = !{!0, !1, !2, !3, !4, !5}

!0 = !{i32 7, !"Dwarf Version", i32 5}
!1 = !{i32 2, !"Debug Info Version", i32 3}
!2 = !{i32 1, !"wchar_size", i32 4}
!3 = !{i32 8, !"PIC Level", i32 2}
!4 = !{i32 7, !"uwtable", i32 2}
!5 = !{i32 7, !"frame-pointer", i32 2}
